; Function Attrs: mustprogress uwtable
define hidden noundef ptr @_ZN1q4mbqi10get_pluginEP3app(ptr nocapture noundef nonnull readonly align 8 dereferenceable(280) %this, ptr noundef nonnull %var) local_unnamed_addr #3 align 2 {
entry:
  %call = tail call noundef ptr @_ZNK4expr8get_sortEv(ptr noundef nonnull align 4 dereferenceable(16) %var)
  %m_info.i = getelementptr inbounds i8, ptr %call, i64 24
  %0 = load ptr, ptr %m_info.i, align 8
  %cmp.i = icmp eq ptr %0, null
  br i1 %cmp.i, label %_ZNK4decl13get_family_idEv.exit, label %cond.false.i

cond.false.i:                                     ; preds = %entry
  %1 = load i32, ptr %0, align 8
  br label %_ZNK4decl13get_family_idEv.exit

_ZNK4decl13get_family_idEv.exit:                  ; preds = %entry, %cond.false.i
  %cond.i = phi i32 [ %1, %cond.false.i ], [ -1, %entry ]
  %m_plugins = getelementptr inbounds i8, ptr %this, i64 208
  %2 = load ptr, ptr %m_plugins, align 8
  %cmp.i.i = icmp eq ptr %2, null
  br i1 %cmp.i.i, label %_ZNK17scoped_ptr_vectorIN3mbp14project_pluginEE3getEjPS1_.exit, label %_ZNK6vectorIPN3mbp14project_pluginELb0EjE4sizeEv.exit.i

_ZNK6vectorIPN3mbp14project_pluginELb0EjE4sizeEv.exit.i: ; preds = %_ZNK4decl13get_family_idEv.exit
  %arrayidx.i.i = getelementptr inbounds i8, ptr %2, i64 -4
  %3 = load i32, ptr %arrayidx.i.i, align 4
  %cmp2.i = icmp ugt i32 %3, %cond.i
  br i1 %cmp2.i, label %cond.true.i, label %_ZNK17scoped_ptr_vectorIN3mbp14project_pluginEE3getEjPS1_.exit

cond.true.i:                                      ; preds = %_ZNK6vectorIPN3mbp14project_pluginELb0EjE4sizeEv.exit.i
  %idxprom.i.i.i = zext i32 %cond.i to i64
  %arrayidx.i.i.i = getelementptr inbounds ptr, ptr %2, i64 %idxprom.i.i.i
  %4 = load ptr, ptr %arrayidx.i.i.i, align 8
  br label %_ZNK17scoped_ptr_vectorIN3mbp14project_pluginEE3getEjPS1_.exit

_ZNK17scoped_ptr_vectorIN3mbp14project_pluginEE3getEjPS1_.exit: ; preds = %_ZNK4decl13get_family_idEv.exit, %_ZNK6vectorIPN3mbp14project_pluginELb0EjE4sizeEv.exit.i, %cond.true.i
  %cond.i1 = phi ptr [ %4, %cond.true.i ], [ null, %_ZNK6vectorIPN3mbp14project_pluginELb0EjE4sizeEv.exit.i ], [ null, %_ZNK4decl13get_family_idEv.exit ]
  ret ptr %cond.i1
}